; Function Attrs: nounwind sspstrong uwtable
define internal i64 @pst_inspect(i64 noundef %0) #1 {
  %2 = tail call ptr @rb_check_typeddata(i64 noundef %0, ptr noundef nonnull @rb_process_status_type) #27
  %3 = load i32, ptr %2, align 4, !tbaa !49
  %.not = icmp eq i32 %3, 0
  br i1 %.not, label %4, label %22

4:                                                ; preds = %1
  %5 = icmp eq i64 %0, 0
  %6 = and i64 %0, 7
  %7 = icmp ne i64 %6, 0
  %8 = or i1 %5, %7
  br i1 %8, label %12, label %9

9:                                                ; preds = %4
  %10 = inttoptr i64 %0 to ptr
  %11 = getelementptr inbounds nuw i8, ptr %10, i64 8
  br label %rb_class_of.exit

12:                                               ; preds = %4
  switch i64 %0, label %15 [
    i64 0, label %rb_class_of.exit
    i64 4, label %13
    i64 20, label %14
  ]

13:                                               ; preds = %12
  br label %rb_class_of.exit

14:                                               ; preds = %12
  br label %rb_class_of.exit

15:                                               ; preds = %12
  %16 = and i64 %0, 1
  %.not.i = icmp eq i64 %16, 0
  br i1 %.not.i, label %17, label %rb_class_of.exit

17:                                               ; preds = %15
  %18 = and i64 %0, 254
  %19 = icmp eq i64 %18, 12
  %spec.select.i = select i1 %19, ptr @rb_cSymbol, ptr @rb_cFloat
  br label %rb_class_of.exit

rb_class_of.exit:                                 ; preds = %9, %12, %13, %14, %15, %17
  %.0.in.i = phi ptr [ @rb_cNilClass, %13 ], [ @rb_cTrueClass, %14 ], [ %11, %9 ], [ @rb_cFalseClass, %12 ], [ @rb_cInteger, %15 ], [ %spec.select.i, %17 ]
  %.0.i = load i64, ptr %.0.in.i, align 8, !tbaa !43
  %20 = tail call ptr @rb_class2name(i64 noundef %.0.i) #27
  %21 = tail call i64 (ptr, ...) @rb_sprintf(ptr noundef nonnull @.str.239, ptr noundef %20) #27
  br label %47

22:                                               ; preds = %1
  %23 = tail call ptr @rb_check_typeddata(i64 noundef %0, ptr noundef nonnull @rb_process_status_type) #27
  %24 = getelementptr inbounds nuw i8, ptr %23, i64 4
  %25 = load i32, ptr %24, align 4, !tbaa !51
  %26 = icmp eq i64 %0, 0
  %27 = and i64 %0, 7
  %28 = icmp ne i64 %27, 0
  %29 = or i1 %26, %28
  br i1 %29, label %33, label %30

30:                                               ; preds = %22
  %31 = inttoptr i64 %0 to ptr
  %32 = getelementptr inbounds nuw i8, ptr %31, i64 8
  br label %rb_class_of.exit16

33:                                               ; preds = %22
  switch i64 %0, label %36 [
    i64 0, label %rb_class_of.exit16
    i64 4, label %34
    i64 20, label %35
  ]

34:                                               ; preds = %33
  br label %rb_class_of.exit16

35:                                               ; preds = %33
  br label %rb_class_of.exit16

36:                                               ; preds = %33
  %37 = and i64 %0, 1
  %.not.i14 = icmp eq i64 %37, 0
  br i1 %.not.i14, label %38, label %rb_class_of.exit16

38:                                               ; preds = %36
  %39 = and i64 %0, 254
  %40 = icmp eq i64 %39, 12
  %spec.select.i15 = select i1 %40, ptr @rb_cSymbol, ptr @rb_cFloat
  br label %rb_class_of.exit16

rb_class_of.exit16:                               ; preds = %30, %33, %34, %35, %36, %38
  %.0.in.i12 = phi ptr [ @rb_cNilClass, %34 ], [ @rb_cTrueClass, %35 ], [ %32, %30 ], [ @rb_cFalseClass, %33 ], [ @rb_cInteger, %36 ], [ %spec.select.i15, %38 ]
  %.0.i13 = load i64, ptr %.0.in.i12, align 8, !tbaa !43
  %41 = tail call ptr @rb_class2name(i64 noundef %.0.i13) #27
  %42 = tail call i64 (ptr, ...) @rb_sprintf(ptr noundef nonnull @.str.240, ptr noundef %41) #27
  %43 = sext i32 %3 to i64
  %44 = tail call i64 (i64, ptr, ...) @rb_str_catf(i64 noundef %42, ptr noundef nonnull @.str.238, i64 noundef %43) #27
  %45 = tail call fastcc i64 @pst_message_status(i64 noundef %42, i32 noundef %25)
  %46 = tail call i64 @rb_str_cat(i64 noundef %42, ptr noundef nonnull @.str.241, i64 noundef 1) #27
  br label %47

47:                                               ; preds = %rb_class_of.exit16, %rb_class_of.exit
  %.0 = phi i64 [ %42, %rb_class_of.exit16 ], [ %21, %rb_class_of.exit ]
  ret i64 %.0
}